target datalayout = "e-m:e-p270:32:32-p271:32:32-p272:64:64-i64:64-i128:128-f80:128-n8:16:32:64-S128"
target triple = "x86_64-pc-linux-gnu"

%struct.EState = type { i32, i32, ptr, ptr, ptr, i32, ptr, ptr, ptr, ptr, ptr, ptr, ptr, ptr, ptr, ptr, i32, ptr, ptr, ptr, ptr, ptr, ptr, ptr, ptr, ptr, ptr, i64, i64, i32, i32, i8, ptr, ptr, ptr, ptr, ptr, i8, i32, i32, ptr, i32, ptr, ptr, ptr, ptr }
%struct.ExprContext = type { i32, ptr, ptr, ptr, ptr, ptr, ptr, ptr, ptr, ptr, i64, i8, i64, i8, ptr, ptr, ptr, ptr }
%struct.ResultRelInfo = type { i32, i32, ptr, i32, ptr, ptr, i16, ptr, i8, ptr, ptr, ptr, i8, i8, ptr, ptr, ptr, ptr, ptr, ptr, ptr, ptr, ptr, ptr, i8, i32, i32, i32, ptr, ptr, ptr, ptr, ptr, ptr, ptr, i32, i32, ptr, ptr, ptr, ptr, [3 x ptr], ptr, ptr, ptr, i8, ptr, i8, ptr, ptr, ptr, ptr }

@CurrentMemoryContext = external global ptr, align 8

; Function Attrs: inlinehint nounwind uwtable
define internal ptr @MemoryContextSwitchTo(ptr noundef %0) #3 {
  %2 = alloca ptr, align 8
  %3 = alloca ptr, align 8
  store ptr %0, ptr %2, align 8
  call void @llvm.lifetime.start.p0(i64 8, ptr %3) #9
  %4 = load ptr, ptr @CurrentMemoryContext, align 8
  store ptr %4, ptr %3, align 8
  %5 = load ptr, ptr %2, align 8
  store ptr %5, ptr @CurrentMemoryContext, align 8
  %6 = load ptr, ptr %3, align 8
  call void @llvm.lifetime.end.p0(i64 8, ptr %3) #9
  ret ptr %6
}

; Function Attrs: nounwind uwtable
define dso_local zeroext i1 @ExecPartitionCheck(ptr noundef %0, ptr noundef %1, ptr noundef %2, i1 noundef zeroext %3) #0 {
  %5 = alloca ptr, align 8
  %6 = alloca ptr, align 8
  %7 = alloca ptr, align 8
  %8 = alloca i8, align 1
  %9 = alloca ptr, align 8
  %10 = alloca i8, align 1
  %11 = alloca ptr, align 8
  %12 = alloca ptr, align 8
  store ptr %0, ptr %5, align 8
  store ptr %1, ptr %6, align 8
  store ptr %2, ptr %7, align 8
  %13 = zext i1 %3 to i8
  store i8 %13, ptr %8, align 1
  call void @llvm.lifetime.start.p0(i64 8, ptr %9) #9
  call void @llvm.lifetime.start.p0(i64 1, ptr %10) #9
  %14 = load ptr, ptr %5, align 8
  %15 = getelementptr inbounds nuw %struct.ResultRelInfo, ptr %14, i32 0, i32 43
  %16 = load ptr, ptr %15, align 8
  %17 = icmp eq ptr %16, null
  br i1 %17, label %18, label %34

18:                                               ; preds = %4
  call void @llvm.lifetime.start.p0(i64 8, ptr %11) #9
  %19 = load ptr, ptr %7, align 8
  %20 = getelementptr inbounds nuw %struct.EState, ptr %19, i32 0, i32 25
  %21 = load ptr, ptr %20, align 8
  %22 = call ptr @MemoryContextSwitchTo(ptr noundef %21)
  store ptr %22, ptr %11, align 8
  call void @llvm.lifetime.start.p0(i64 8, ptr %12) #9
  %23 = load ptr, ptr %5, align 8
  %24 = getelementptr inbounds nuw %struct.ResultRelInfo, ptr %23, i32 0, i32 2
  %25 = load ptr, ptr %24, align 8
  %26 = call ptr @RelationGetPartitionQual(ptr noundef %25)
  store ptr %26, ptr %12, align 8
  %27 = load ptr, ptr %12, align 8
  %28 = load ptr, ptr %7, align 8
  %29 = call ptr @ExecPrepareCheck(ptr noundef %27, ptr noundef %28)
  %30 = load ptr, ptr %5, align 8
  %31 = getelementptr inbounds nuw %struct.ResultRelInfo, ptr %30, i32 0, i32 43
  store ptr %29, ptr %31, align 8
  %32 = load ptr, ptr %11, align 8
  %33 = call ptr @MemoryContextSwitchTo(ptr noundef %32)
  call void @llvm.lifetime.end.p0(i64 8, ptr %12) #9
  call void @llvm.lifetime.end.p0(i64 8, ptr %11) #9
  br label %34

34:                                               ; preds = %18, %4
  %35 = load ptr, ptr %7, align 8
  %36 = getelementptr inbounds nuw %struct.EState, ptr %35, i32 0, i32 35
  %37 = load ptr, ptr %36, align 8
  %38 = icmp ne ptr %37, null
  br i1 %38, label %39, label %43

39:                                               ; preds = %34
  %40 = load ptr, ptr %7, align 8
  %41 = getelementptr inbounds nuw %struct.EState, ptr %40, i32 0, i32 35
  %42 = load ptr, ptr %41, align 8
  br label %46

43:                                               ; preds = %34
  %44 = load ptr, ptr %7, align 8
  %45 = call ptr @MakePerTupleExprContext(ptr noundef %44)
  br label %46

46:                                               ; preds = %43, %39
  %47 = phi ptr [ %42, %39 ], [ %45, %43 ]
  store ptr %47, ptr %9, align 8
  %48 = load ptr, ptr %6, align 8
  %49 = load ptr, ptr %9, align 8
  %50 = getelementptr inbounds nuw %struct.ExprContext, ptr %49, i32 0, i32 1
  store ptr %48, ptr %50, align 8
  %51 = load ptr, ptr %5, align 8
  %52 = getelementptr inbounds nuw %struct.ResultRelInfo, ptr %51, i32 0, i32 43
  %53 = load ptr, ptr %52, align 8
  %54 = load ptr, ptr %9, align 8
  %55 = call zeroext i1 @ExecCheck(ptr noundef %53, ptr noundef %54)
  %56 = zext i1 %55 to i8
  store i8 %56, ptr %10, align 1
  %57 = load i8, ptr %10, align 1, !range !4, !noundef !5
  %58 = trunc i8 %57 to i1
  br i1 %58, label %66, label %59

59:                                               ; preds = %46
  %60 = load i8, ptr %8, align 1, !range !4, !noundef !5
  %61 = trunc i8 %60 to i1
  br i1 %61, label %62, label %66

62:                                               ; preds = %59
  %63 = load ptr, ptr %5, align 8
  %64 = load ptr, ptr %6, align 8
  %65 = load ptr, ptr %7, align 8
  call void @ExecPartitionCheckEmitError(ptr noundef %63, ptr noundef %64, ptr noundef %65)
  br label %66

66:                                               ; preds = %62, %59, %46
  %67 = load i8, ptr %10, align 1, !range !4, !noundef !5
  %68 = trunc i8 %67 to i1
  call void @llvm.lifetime.end.p0(i64 1, ptr %10) #9
  call void @llvm.lifetime.end.p0(i64 8, ptr %9) #9
  ret i1 %68
}