; Function Attrs: nounwind uwtable
define dso_local zeroext i1 @ExecPartitionCheck(ptr noundef %0, ptr noundef %1, ptr noundef %2, i1 noundef zeroext %3) local_unnamed_addr #0 {
  %5 = getelementptr inbounds nuw i8, ptr %0, i64 320
  %6 = load ptr, ptr %5, align 8
  %7 = icmp eq ptr %6, null
  br i1 %7, label %8, label %16

8:                                                ; preds = %4
  %9 = getelementptr inbounds nuw i8, ptr %2, i64 192
  %10 = load ptr, ptr %9, align 8
  %11 = load ptr, ptr @CurrentMemoryContext, align 8
  store ptr %10, ptr @CurrentMemoryContext, align 8
  %12 = getelementptr inbounds nuw i8, ptr %0, i64 8
  %13 = load ptr, ptr %12, align 8
  %14 = tail call ptr @RelationGetPartitionQual(ptr noundef %13) #9
  %15 = tail call ptr @ExecPrepareCheck(ptr noundef %14, ptr noundef %2) #9
  store ptr %15, ptr %5, align 8
  store ptr %11, ptr @CurrentMemoryContext, align 8
  br label %16

16:                                               ; preds = %8, %4
  %17 = getelementptr inbounds nuw i8, ptr %2, i64 264
  %18 = load ptr, ptr %17, align 8
  %.not = icmp eq ptr %18, null
  br i1 %.not, label %19, label %21

19:                                               ; preds = %16
  %20 = tail call ptr @MakePerTupleExprContext(ptr noundef nonnull %2) #9
  br label %21

21:                                               ; preds = %16, %19
  %22 = phi ptr [ %20, %19 ], [ %18, %16 ]
  %23 = getelementptr inbounds nuw i8, ptr %22, i64 8
  store ptr %1, ptr %23, align 8
  %24 = load ptr, ptr %5, align 8
  %25 = tail call zeroext i1 @ExecCheck(ptr noundef %24, ptr noundef %22) #9
  %.not19 = xor i1 %3, true
  %brmerge = or i1 %25, %.not19
  br i1 %brmerge, label %27, label %26

26:                                               ; preds = %21
  tail call void @ExecPartitionCheckEmitError(ptr noundef nonnull %0, ptr noundef %1, ptr noundef nonnull %2)
  unreachable

27:                                               ; preds = %21
  ret i1 %25
}